target datalayout = "e-m:e-p270:32:32-p271:32:32-p272:64:64-i64:64-i128:128-f80:128-n8:16:32:64-S128"
target triple = "x86_64-pc-linux-gnu"

%struct.ossl_decoder_st = type { %struct.ossl_endecode_base_st, ptr, ptr, ptr, ptr, ptr, ptr, ptr, ptr, ptr }
%struct.ossl_endecode_base_st = type { ptr, i32, ptr, ptr, ptr, %struct.CRYPTO_REF_COUNT }
%struct.CRYPTO_REF_COUNT = type { i32 }

; Function Attrs: nounwind uwtable
define i32 @OSSL_DECODER_is_a(ptr noundef %0, ptr noundef %1) #0 {
  %3 = alloca i32, align 4
  %4 = alloca ptr, align 8
  %5 = alloca ptr, align 8
  %6 = alloca ptr, align 8
  %7 = alloca ptr, align 8
  store ptr %0, ptr %4, align 8, !tbaa !3
  store ptr %1, ptr %5, align 8, !tbaa !48
  %8 = load ptr, ptr %4, align 8, !tbaa !3
  %9 = getelementptr inbounds nuw %struct.ossl_decoder_st, ptr %8, i32 0, i32 0
  %10 = getelementptr inbounds nuw %struct.ossl_endecode_base_st, ptr %9, i32 0, i32 0
  %11 = load ptr, ptr %10, align 8, !tbaa !22
  %12 = icmp ne ptr %11, null
  br i1 %12, label %13, label %30

13:                                               ; preds = %2
  call void @llvm.lifetime.start.p0(i64 8, ptr %6) #7
  %14 = load ptr, ptr %4, align 8, !tbaa !3
  %15 = getelementptr inbounds nuw %struct.ossl_decoder_st, ptr %14, i32 0, i32 0
  %16 = getelementptr inbounds nuw %struct.ossl_endecode_base_st, ptr %15, i32 0, i32 0
  %17 = load ptr, ptr %16, align 8, !tbaa !22
  %18 = call ptr @ossl_provider_libctx(ptr noundef %17)
  store ptr %18, ptr %6, align 8, !tbaa !29
  call void @llvm.lifetime.start.p0(i64 8, ptr %7) #7
  %19 = load ptr, ptr %6, align 8, !tbaa !29
  %20 = call ptr @ossl_namemap_stored(ptr noundef %19)
  store ptr %20, ptr %7, align 8, !tbaa !56
  %21 = load ptr, ptr %7, align 8, !tbaa !56
  %22 = load ptr, ptr %5, align 8, !tbaa !48
  %23 = call i32 @ossl_namemap_name2num(ptr noundef %21, ptr noundef %22)
  %24 = load ptr, ptr %4, align 8, !tbaa !3
  %25 = getelementptr inbounds nuw %struct.ossl_decoder_st, ptr %24, i32 0, i32 0
  %26 = getelementptr inbounds nuw %struct.ossl_endecode_base_st, ptr %25, i32 0, i32 1
  %27 = load i32, ptr %26, align 8, !tbaa !31
  %28 = icmp eq i32 %23, %27
  %29 = zext i1 %28 to i32
  store i32 %29, ptr %3, align 4
  call void @llvm.lifetime.end.p0(i64 8, ptr %7) #7
  call void @llvm.lifetime.end.p0(i64 8, ptr %6) #7
  br label %31

30:                                               ; preds = %2
  store i32 0, ptr %3, align 4
  br label %31

31:                                               ; preds = %30, %13
  %32 = load i32, ptr %3, align 4
  ret i32 %32
}