; Function Attrs: nounwind uwtable
define range(i32 0, 2) i32 @OSSL_DECODER_is_a(ptr noundef readonly captures(none) %0, ptr noundef %1) local_unnamed_addr #2 {
  %3 = load ptr, ptr %0, align 8, !tbaa !16
  %.not = icmp eq ptr %3, null
  br i1 %.not, label %12, label %4

4:                                                ; preds = %2
  %5 = tail call ptr @ossl_provider_libctx(ptr noundef nonnull %3) #8
  %6 = tail call ptr @ossl_namemap_stored(ptr noundef %5) #8
  %7 = tail call i32 @ossl_namemap_name2num(ptr noundef %6, ptr noundef %1) #8
  %8 = getelementptr inbounds nuw i8, ptr %0, i64 8
  %9 = load i32, ptr %8, align 8, !tbaa !21
  %10 = icmp eq i32 %7, %9
  %11 = zext i1 %10 to i32
  br label %12

12:                                               ; preds = %2, %4
  %.0 = phi i32 [ %11, %4 ], [ 0, %2 ]
  ret i32 %.0
}